; Function Attrs: mustprogress null_pointer_is_valid sspstrong uwtable
define noundef ptr @_ZN15RtpPlayerDialog21getSilenceAudioOutputEv(ptr noundef align 8 dereferenceable_or_null(472) %0) local_unnamed_addr #0 align 2 personality ptr @__gxx_personality_v0 {
  %2 = alloca { i64, i64 }, align 8
  %3 = alloca { i64, i64 }, align 8
  %4 = alloca %class.QAudioDevice, align 8
  %5 = alloca %class.QAudioFormat, align 8
  %6 = alloca %class.QAudioFormat, align 8
  %7 = alloca %"class.QMetaObject::Connection", align 8
  call void @llvm.lifetime.start.p0(i64 8, ptr nonnull %4) #26
  call void @_ZN15RtpPlayerDialog20getCurrentDeviceInfoEv(ptr dead_on_unwind nonnull writable sret(%class.QAudioDevice) align 8 %4, ptr noundef align 8 dereferenceable_or_null(472) %0)
  call void @llvm.lifetime.start.p0(i64 24, ptr nonnull %5) #26
  %8 = getelementptr inbounds nuw i8, ptr %5, i64 16
  store i64 0, ptr %8, align 8
  %9 = getelementptr inbounds nuw i8, ptr %0, i64 352
  %10 = load i32, ptr %9, align 8
  %.not = icmp eq i32 %10, 0
  %spec.select = select i1 %.not, i32 8000, i32 %10
  %11 = getelementptr inbounds nuw i8, ptr %5, i64 8
  store i32 %spec.select, ptr %11, align 8
  store i16 2, ptr %5, align 8
  %12 = getelementptr inbounds nuw i8, ptr %5, i64 4
  store i32 0, ptr %12, align 4
  %13 = getelementptr inbounds nuw i8, ptr %5, i64 2
  store i16 1, ptr %13, align 2
  %14 = invoke noundef zeroext i1 @_ZNK12QAudioDevice17isFormatSupportedERK12QAudioFormat(ptr noundef nonnull align 8 dereferenceable_or_null(8) %4, ptr noundef nonnull align 8 dereferenceable(24) %5)
          to label %15 unwind label %18

15:                                               ; preds = %1
  br i1 %14, label %22, label %16

16:                                               ; preds = %15
  call void @llvm.lifetime.start.p0(i64 24, ptr nonnull %6) #26
  invoke void @_ZNK12QAudioDevice15preferredFormatEv(ptr dead_on_unwind nonnull writable sret(%class.QAudioFormat) align 8 %6, ptr noundef nonnull align 8 dereferenceable_or_null(8) %4)
          to label %17 unwind label %20

17:                                               ; preds = %16
  call void @llvm.memcpy.p0.p0.i64(ptr noundef nonnull align 8 dereferenceable(24) %5, ptr noundef nonnull align 8 dereferenceable(24) %6, i64 24, i1 false)
  call void @llvm.lifetime.end.p0(i64 24, ptr nonnull %6) #26
  br label %22

18:                                               ; preds = %1
  %19 = landingpad { ptr, i32 }
          cleanup
  br label %34

20:                                               ; preds = %16
  %21 = landingpad { ptr, i32 }
          cleanup
  call void @llvm.lifetime.end.p0(i64 24, ptr nonnull %6) #26
  br label %34

22:                                               ; preds = %17, %15
  %23 = invoke noalias noundef dereferenceable_or_null(24) ptr @_Znwm(i64 noundef 24) #28
          to label %24 unwind label %30

24:                                               ; preds = %22
  invoke void @_ZN10QAudioSinkC1ERK12QAudioDeviceRK12QAudioFormatP7QObject(ptr noundef align 8 dereferenceable_or_null(24) %23, ptr noundef nonnull align 8 dereferenceable(8) %4, ptr noundef nonnull align 8 dereferenceable(24) %5, ptr noundef %0)
          to label %25 unwind label %32

25:                                               ; preds = %24
  call void @llvm.lifetime.start.p0(i64 16, ptr nonnull %2)
  call void @llvm.lifetime.start.p0(i64 16, ptr nonnull %3)
  store i64 ptrtoint (ptr @_ZN10QAudioSink12stateChangedEN6QAudio5StateE to i64), ptr %2, align 8, !noalias !156
  %.fca.1.gep12.i = getelementptr inbounds nuw i8, ptr %2, i64 8
  store i64 0, ptr %.fca.1.gep12.i, align 8, !noalias !156
  store i64 ptrtoint (ptr @_ZN15RtpPlayerDialog16sinkStateChangedEv to i64), ptr %3, align 8, !noalias !156
  %.fca.1.gep.i = getelementptr inbounds nuw i8, ptr %3, i64 8
  store i64 0, ptr %.fca.1.gep.i, align 8, !noalias !156
  %26 = invoke noalias noundef dereferenceable_or_null(32) ptr @_Znwm(i64 noundef 32) #28
          to label %.noexc unwind label %30

.noexc:                                           ; preds = %25
  store i32 1, ptr %26, align 4, !noalias !156
  %27 = getelementptr inbounds nuw i8, ptr %26, i64 8
  store ptr @_ZN9QtPrivate11QSlotObjectIM15RtpPlayerDialogFvvENS_4ListIJEEEvE4implEiPNS_15QSlotObjectBaseEP7QObjectPPvPb, ptr %27, align 8, !noalias !156
  %28 = getelementptr inbounds nuw i8, ptr %26, i64 16
  store i64 ptrtoint (ptr @_ZN15RtpPlayerDialog16sinkStateChangedEv to i64), ptr %28, align 8, !noalias !156
  %.repack7.i.i = getelementptr inbounds nuw i8, ptr %26, i64 24
  store i64 0, ptr %.repack7.i.i, align 8, !noalias !156
  invoke void @_ZN7QObject11connectImplEPKS_PPvS1_S3_PN9QtPrivate15QSlotObjectBaseEN2Qt14ConnectionTypeEPKiPK11QMetaObject(ptr dead_on_unwind nonnull writable sret(%"class.QMetaObject::Connection") align 8 %7, ptr noundef %23, ptr noundef nonnull %2, ptr noundef %0, ptr noundef nonnull %3, ptr noundef %26, i32 noundef 0, ptr noundef null, ptr noundef nonnull @_ZN10QAudioSink16staticMetaObjectE)
          to label %29 unwind label %30

29:                                               ; preds = %.noexc
  call void @llvm.lifetime.end.p0(i64 16, ptr nonnull %2)
  call void @llvm.lifetime.end.p0(i64 16, ptr nonnull %3)
  call void @_ZN11QMetaObject10ConnectionD1Ev(ptr noundef nonnull align 8 dereferenceable_or_null(8) %7) #26
  call void @llvm.lifetime.end.p0(i64 24, ptr nonnull %5) #26
  call void @_ZN12QAudioDeviceD1Ev(ptr noundef nonnull align 8 dereferenceable_or_null(8) %4) #26
  call void @llvm.lifetime.end.p0(i64 8, ptr nonnull %4) #26
  ret ptr %23

30:                                               ; preds = %.noexc, %25, %22
  %31 = landingpad { ptr, i32 }
          cleanup
  br label %34

32:                                               ; preds = %24
  %33 = landingpad { ptr, i32 }
          cleanup
  call void @_ZdlPvm(ptr noundef %23, i64 noundef 24) #29
  br label %34

34:                                               ; preds = %30, %32, %20, %18
  %.pn.pn = phi { ptr, i32 } [ %21, %20 ], [ %19, %18 ], [ %31, %30 ], [ %33, %32 ]
  call void @llvm.lifetime.end.p0(i64 24, ptr nonnull %5) #26
  call void @_ZN12QAudioDeviceD1Ev(ptr noundef nonnull align 8 dereferenceable_or_null(8) %4) #26
  call void @llvm.lifetime.end.p0(i64 8, ptr nonnull %4) #26
  resume { ptr, i32 } %.pn.pn
}